Certificate:
    Data:
        Version: 3 (0x2)
        Serial Number: 4096 (0x1000)
        Signature Algorithm: sha256WithRSAEncryption
        Issuer: C=RS, ST=Serbia, L=Novi Sad, O=FTN, OU=IT, CN=home-o-bot-intermediate/emailAddress=mail@mail.com
        Validity
            Not Before: Apr 18 14:14:15 2022 GMT
            Not After : Apr 15 14:14:15 2032 GMT
        Subject: C=RS, ST=Serbia, O=FTN, OU=IT, CN=home-o-bot-intermediate/emailAddress=mail@mail.com
        Subject Public Key Info:
            Public Key Algorithm: rsaEncryption
                RSA Public-Key: (4096 bit)
                Modulus:
                    00:c8:bc:e9:4a:c9:5f:fc:6b:48:31:f9:d0:18:d3:
                    78:6c:39:d5:f6:12:66:fe:70:5e:fa:53:a7:ba:c9:
                    72:d6:ff:6d:89:61:37:b1:33:6c:2a:f7:de:18:0f:
                    71:81:b7:70:93:d4:00:f4:78:61:b5:23:7d:bc:f9:
                    48:c9:6c:0c:bf:24:b0:e0:9a:27:b3:04:51:0b:f4:
                    55:82:92:0d:d4:f9:f4:65:dc:0e:6c:fe:a6:1d:9b:
                    7e:3a:85:3e:2a:63:c8:35:11:f0:b5:06:f0:23:37:
                    40:50:e5:65:85:08:4f:c4:0c:95:a8:11:ee:83:83:
                    73:97:cd:d2:aa:8f:87:9c:d4:27:04:23:d0:d1:53:
                    53:2e:6c:f6:18:05:12:88:71:22:dd:41:f3:a8:25:
                    01:17:ff:7c:7b:18:0c:f0:ab:d6:f5:a1:b6:43:c6:
                    1f:fe:83:f2:57:46:99:f3:16:5b:9d:a9:52:c7:27:
                    57:40:d7:62:98:e1:26:f6:16:2c:43:9f:a2:55:04:
                    d9:5f:32:1d:64:d8:4c:1e:13:01:01:4a:5c:99:d1:
                    da:56:e9:4a:7a:b0:d4:78:df:65:9b:b0:d6:16:f9:
                    ba:70:dd:d6:e3:93:20:46:67:b7:6d:a0:d1:fc:d8:
                    3f:66:2c:70:f2:e4:56:5f:ed:4b:66:d9:b3:60:8f:
                    36:54:43:02:00:8b:15:05:15:fa:68:6e:dd:13:85:
                    f5:28:6d:9d:a1:ba:82:80:d0:1c:20:22:a2:b3:53:
                    dd:3e:24:29:69:c9:b6:60:30:35:10:c7:46:ee:a5:
                    4c:82:fb:54:92:94:28:fa:c2:98:4c:da:4f:5b:e0:
                    6f:e4:b5:8d:93:59:0e:19:7d:9f:8e:c4:7c:40:4e:
                    97:a5:ab:78:ce:ed:2a:1a:9f:f7:a3:26:04:44:26:
                    63:94:0e:72:13:7a:61:a6:39:d2:9c:ea:94:79:23:
                    37:11:1c:29:7f:ac:52:9d:76:98:5f:7f:19:ff:03:
                    21:8d:51:a3:f9:32:74:a9:df:5b:94:e2:99:47:4f:
                    74:ec:81:27:5d:b4:df:9a:56:4b:16:32:f4:96:1f:
                    40:d9:0d:20:1e:40:11:12:04:d6:cc:15:0a:a5:3d:
                    6b:c2:2e:ab:c3:04:39:3a:88:51:e0:74:ff:9b:58:
                    74:e8:4f:7a:ab:28:db:a4:5e:90:74:6f:66:76:62:
                    90:70:e7:9c:03:11:8c:b7:ed:6e:ca:2f:83:fa:5e:
                    8f:07:1f:6e:32:b4:31:58:e2:c1:1d:44:6d:a1:aa:
                    ce:8a:26:d3:f9:89:82:e3:f8:be:6a:e7:e7:c3:34:
                    fa:0f:ce:26:bb:c8:2a:22:74:ac:20:eb:a0:a8:cb:
                    f4:bc:75
                Exponent: 65537 (0x10001)
        X509v3 extensions:
            X509v3 Subject Key Identifier: 
                43:D2:5C:87:3A:FB:5A:48:E8:BD:BD:AC:FA:EC:60:FC:81:F0:A9:27
            X509v3 Authority Key Identifier: 
                keyid:9C:BB:2F:68:C9:13:55:F7:91:75:B9:B1:B6:08:B2:8D:BD:43:0F:61

            X509v3 Basic Constraints: critical
                CA:TRUE, pathlen:0
            X509v3 Key Usage: critical
                Digital Signature, Certificate Sign, CRL Sign
    Signature Algorithm: sha256WithRSAEncryption
         90:76:5c:e4:e9:6f:f0:6c:b7:e7:9a:0a:18:bf:1b:1c:55:11:
         cd:fd:03:af:16:9d:63:2d:b4:42:ae:c7:61:ac:0f:1b:da:d9:
         33:f5:13:d4:95:5a:12:73:6b:aa:30:8a:4a:f2:6d:ff:22:15:
         0a:ba:10:0a:16:96:76:8b:bc:0f:de:62:98:63:90:bf:07:24:
         3e:1f:2d:33:4d:a3:2d:62:19:07:37:da:4a:ce:6f:b1:b7:a8:
         1e:03:c1:dc:81:02:23:0d:af:43:3c:c8:8c:e7:e4:51:ec:8e:
         80:fe:9f:ee:65:04:60:6a:b0:40:cf:83:51:ad:7f:12:3f:3a:
         03:85:c8:9b:08:46:6e:33:7d:2d:75:e1:2c:05:b2:b4:3e:a5:
         0d:0c:46:75:a5:9c:fc:f9:3d:51:0b:1c:13:78:c0:02:89:29:
         d3:7e:74:a2:8f:b5:e1:8b:1a:d0:63:b8:77:22:3d:2c:c9:e0:
         d4:73:23:de:ad:43:61:64:9a:f2:e7:df:5c:af:cd:09:fd:aa:
         4f:62:0a:46:2b:09:eb:2a:85:ef:d6:b4:e2:d4:1a:9c:2e:fc:
         13:6a:d7:5d:e6:73:a1:b6:07:4f:e8:bb:b1:35:1c:a5:58:a2:
         10:1e:f5:bb:ac:f1:3f:11:64:96:51:30:19:b2:e4:7f:d0:74:
         e7:cb:bd:c1:80:03:d8:42:32:7d:d9:10:57:36:f9:8d:94:7b:
         b0:57:dc:f2:d4:c1:6b:7e:c9:7a:13:ec:ac:7c:e0:41:a4:b7:
         18:49:67:71:0f:11:a0:3c:55:ae:16:c3:9f:81:49:7e:6e:37:
         bb:30:f7:33:9a:c6:02:6e:07:82:8b:1d:16:35:90:ee:38:f5:
         bf:28:ea:f1:e1:be:00:fd:38:eb:2d:5a:c7:db:9f:c8:9e:f5:
         61:5e:52:d5:83:84:04:a5:cf:4e:c5:f9:b3:d1:fc:b1:88:8f:
         af:37:3b:48:37:1a:6b:c0:01:b7:84:ec:32:e7:09:82:47:a0:
         c1:bb:30:b5:36:eb:14:1a:d1:e1:3b:0f:d9:82:46:f3:b2:c9:
         09:e2:10:2b:b8:ff:c3:18:07:69:31:7e:23:7a:03:4e:73:7e:
         19:6a:29:68:ec:21:73:f7:04:41:f2:58:8c:8e:e9:53:c9:85:
         6a:1e:cf:da:95:76:0c:ac:cb:ba:42:53:e1:34:24:08:37:0c:
         80:5e:85:db:2c:d5:ad:71:93:d5:44:a5:16:3d:77:f3:8b:0c:
         0f:76:52:8b:01:f8:4f:cb:19:ae:c4:1a:cb:bb:49:ee:03:06:
         7f:9c:05:64:ff:af:3b:fc:3f:d3:1a:c4:72:0f:7a:e7:48:3d:
         a8:45:7d:79:42:54:e2:21
-----BEGIN CERTIFICATE-----
MIIF6DCCA9CgAwIBAgICEAAwDQYJKoZIhvcNAQELBQAwgYwxCzAJBgNVBAYTAlJT
MQ8wDQYDVQQIDAZTZXJiaWExETAPBgNVBAcMCE5vdmkgU2FkMQwwCgYDVQQKDANG
VE4xCzAJBgNVBAsMAklUMSAwHgYDVQQDDBdob21lLW8tYm90LWludGVybWVkaWF0
ZTEcMBoGCSqGSIb3DQEJARYNbWFpbEBtYWlsLmNvbTAeFw0yMjA0MTgxNDE0MTVa
Fw0zMjA0MTUxNDE0MTVaMHkxCzAJBgNVBAYTAlJTMQ8wDQYDVQQIDAZTZXJiaWEx
DDAKBgNVBAoMA0ZUTjELMAkGA1UECwwCSVQxIDAeBgNVBAMMF2hvbWUtby1ib3Qt
aW50ZXJtZWRpYXRlMRwwGgYJKoZIhvcNAQkBFg1tYWlsQG1haWwuY29tMIICIjAN
BgkqhkiG9w0BAQEFAAOCAg8AMIICCgKCAgEAyLzpSslf/GtIMfnQGNN4bDnV9hJm
/nBe+lOnusly1v9tiWE3sTNsKvfeGA9xgbdwk9QA9HhhtSN9vPlIyWwMvySw4Jon
swRRC/RVgpIN1Pn0ZdwObP6mHZt+OoU+KmPINRHwtQbwIzdAUOVlhQhPxAyVqBHu
g4Nzl83Sqo+HnNQnBCPQ0VNTLmz2GAUSiHEi3UHzqCUBF/98exgM8KvW9aG2Q8Yf
/oPyV0aZ8xZbnalSxydXQNdimOEm9hYsQ5+iVQTZXzIdZNhMHhMBAUpcmdHaVulK
erDUeN9lm7DWFvm6cN3W45MgRme3baDR/Ng/Zixw8uRWX+1LZtmzYI82VEMCAIsV
BRX6aG7dE4X1KG2dobqCgNAcICKis1PdPiQpacm2YDA1EMdG7qVMgvtUkpQo+sKY
TNpPW+Bv5LWNk1kOGX2fjsR8QE6Xpat4zu0qGp/3oyYERCZjlA5yE3phpjnSnOqU
eSM3ERwpf6xSnXaYX38Z/wMhjVGj+TJ0qd9blOKZR0907IEnXbTfmlZLFjL0lh9A
2Q0gHkAREgTWzBUKpT1rwi6rwwQ5OohR4HT/m1h06E96qyjbpF6QdG9mdmKQcOec
AxGMt+1uyi+D+l6PBx9uMrQxWOLBHURtoarOiibT+YmC4/i+aufnwzT6D84mu8gq
InSsIOugqMv0vHUCAwEAAaNmMGQwHQYDVR0OBBYEFEPSXIc6+1pI6L29rPrsYPyB
8KknMB8GA1UdIwQYMBaAFJy7L2jJE1X3kXW5sbYIso29Qw9hMBIGA1UdEwEB/wQI
MAYBAf8CAQAwDgYDVR0PAQH/BAQDAgGGMA0GCSqGSIb3DQEBCwUAA4ICAQCQdlzk
6W/wbLfnmgoYvxscVRHN/QOvFp1jLbRCrsdhrA8b2tkz9RPUlVoSc2uqMIpK8m3/
IhUKuhAKFpZ2i7wP3mKYY5C/ByQ+Hy0zTaMtYhkHN9pKzm+xt6geA8HcgQIjDa9D
PMiM5+RR7I6A/p/uZQRgarBAz4NRrX8SPzoDhcibCEZuM30tdeEsBbK0PqUNDEZ1
pZz8+T1RCxwTeMACiSnTfnSij7XhixrQY7h3Ij0syeDUcyPerUNhZJry599cr80J
/apPYgpGKwnrKoXv1rTi1BqcLvwTatdd5nOhtgdP6LuxNRylWKIQHvW7rPE/EWSW
UTAZsuR/0HTny73BgAPYQjJ92RBXNvmNlHuwV9zy1MFrfsl6E+ysfOBBpLcYSWdx
DxGgPFWuFsOfgUl+bje7MPczmsYCbgeCix0WNZDuOPW/KOrx4b4A/TjrLVrH25/I
nvVhXlLVg4QEpc9Oxfmz0fyxiI+vNztINxprwAG3hOwy5wmCR6DBuzC1NusUGtHh
Ow/ZgkbzsskJ4hAruP/DGAdpMX4jegNOc34Zailo7CFz9wRB8liMjulTyYVqHs/a
lXYMrMu6QlPhNCQINwyAXoXbLNWtcZPVRKUWPXfziwwPdlKLAfhPyxmuxBrLu0nu
AwZ/nAVk/687/D/TGsRyD3rnSD2oRX15QlTiIQ==
-----END CERTIFICATE-----
